; Function Attrs: mustprogress nofree nounwind willreturn memory(read, inaccessiblemem: none) uwtable
define hidden noundef i64 @_ZNK6google8protobuf20stringpiece_internal11StringPiece4findEcm(ptr noundef nonnull readonly align 8 captures(none) dereferenceable(16) %0, i8 noundef signext %1, i64 noundef %2) local_unnamed_addr #7 align 2 {
  %4 = getelementptr inbounds nuw i8, ptr %0, i64 8
  %5 = load i64, ptr %4, align 8, !tbaa !10
  %.not = icmp ult i64 %2, %5
  br i1 %.not, label %6, label %16

6:                                                ; preds = %3
  %7 = load ptr, ptr %0, align 8, !tbaa !3
  %8 = getelementptr inbounds nuw i8, ptr %7, i64 %2
  %9 = sext i8 %1 to i32
  %10 = sub nuw i64 %5, %2
  %11 = tail call noundef ptr @memchr(ptr noundef %8, i32 noundef %9, i64 noundef %10) #17
  %.not10 = icmp eq ptr %11, null
  %12 = ptrtoint ptr %11 to i64
  %13 = ptrtoint ptr %7 to i64
  %14 = sub i64 %12, %13
  %15 = select i1 %.not10, i64 -1, i64 %14
  br label %16

16:                                               ; preds = %3, %6
  %.0 = phi i64 [ %15, %6 ], [ -1, %3 ]
  ret i64 %.0
}